target datalayout = "e-m:e-p270:32:32-p271:32:32-p272:64:64-i64:64-i128:128-f80:128-n8:16:32:64-S128"
target triple = "x86_64-pc-linux-gnu"

%struct.H264RawScalingList = type { [64 x i8] }

@.str.66 = private unnamed_addr constant [15 x i8] c"delta_scale[i]\00", align 1

; Function Attrs: nounwind uwtable
define internal i32 @cbs_h264_write_scaling_list(ptr noundef %0, ptr noundef %1, ptr noundef %2, i32 noundef %3) #0 {
  %5 = alloca i32, align 4
  %6 = alloca ptr, align 8
  %7 = alloca ptr, align 8
  %8 = alloca ptr, align 8
  %9 = alloca i32, align 4
  %10 = alloca i32, align 4
  %11 = alloca i32, align 4
  %12 = alloca i32, align 4
  %13 = alloca i32, align 4
  %14 = alloca [2 x i32], align 4
  %15 = alloca i32, align 4
  store ptr %0, ptr %6, align 8, !tbaa !4
  store ptr %1, ptr %7, align 8, !tbaa !70
  store ptr %2, ptr %8, align 8, !tbaa !328
  store i32 %3, ptr %9, align 4, !tbaa !11
  call void @llvm.lifetime.start.p0(i64 4, ptr %10) #11
  call void @llvm.lifetime.start.p0(i64 4, ptr %11) #11
  call void @llvm.lifetime.start.p0(i64 4, ptr %12) #11
  store i32 8, ptr %12, align 4, !tbaa !11
  store i32 0, ptr %11, align 4, !tbaa !11
  br label %16

16:                                               ; preds = %64, %4
  %17 = load i32, ptr %11, align 4, !tbaa !11
  %18 = load i32, ptr %9, align 4, !tbaa !11
  %19 = icmp slt i32 %17, %18
  br i1 %19, label %20, label %67

20:                                               ; preds = %16
  br label %21

21:                                               ; preds = %20
  call void @llvm.lifetime.start.p0(i64 4, ptr %13) #11
  %22 = load ptr, ptr %8, align 8, !tbaa !328
  %23 = getelementptr inbounds nuw %struct.H264RawScalingList, ptr %22, i32 0, i32 0
  %24 = load i32, ptr %11, align 4, !tbaa !11
  %25 = sext i32 %24 to i64
  %26 = getelementptr inbounds [64 x i8], ptr %23, i64 0, i64 %25
  %27 = load i8, ptr %26, align 1, !tbaa !32
  %28 = sext i8 %27 to i32
  store i32 %28, ptr %13, align 4, !tbaa !11
  br label %29

29:                                               ; preds = %21
  %30 = load ptr, ptr %6, align 8, !tbaa !4
  %31 = load ptr, ptr %7, align 8, !tbaa !70
  store i32 1, ptr %14, align 4, !tbaa !11
  %32 = getelementptr inbounds i32, ptr %14, i64 1
  %33 = load i32, ptr %11, align 4, !tbaa !11
  store i32 %33, ptr %32, align 4, !tbaa !11
  %34 = getelementptr inbounds [2 x i32], ptr %14, i64 0, i64 0
  %35 = load i32, ptr %13, align 4, !tbaa !11
  %36 = call i32 @cbs_write_se_golomb(ptr noundef %30, ptr noundef %31, ptr noundef @.str.66, ptr noundef %34, i32 noundef %35, i32 noundef -128, i32 noundef 127)
  store i32 %36, ptr %10, align 4, !tbaa !11
  %37 = load i32, ptr %10, align 4, !tbaa !11
  %38 = icmp slt i32 %37, 0
  br i1 %38, label %39, label %41

39:                                               ; preds = %29
  %40 = load i32, ptr %10, align 4, !tbaa !11
  store i32 %40, ptr %5, align 4
  store i32 1, ptr %15, align 4
  br label %44

41:                                               ; preds = %29
  br label %42

42:                                               ; preds = %41
  br label %43

43:                                               ; preds = %42
  store i32 0, ptr %15, align 4
  br label %44

44:                                               ; preds = %43, %39
  call void @llvm.lifetime.end.p0(i64 4, ptr %13) #11
  %45 = load i32, ptr %15, align 4
  switch i32 %45, label %68 [
    i32 0, label %46
  ]

46:                                               ; preds = %44
  br label %47

47:                                               ; preds = %46
  br label %48

48:                                               ; preds = %47
  %49 = load i32, ptr %12, align 4, !tbaa !11
  %50 = load ptr, ptr %8, align 8, !tbaa !328
  %51 = getelementptr inbounds nuw %struct.H264RawScalingList, ptr %50, i32 0, i32 0
  %52 = load i32, ptr %11, align 4, !tbaa !11
  %53 = sext i32 %52 to i64
  %54 = getelementptr inbounds [64 x i8], ptr %51, i64 0, i64 %53
  %55 = load i8, ptr %54, align 1, !tbaa !32
  %56 = sext i8 %55 to i32
  %57 = add nsw i32 %49, %56
  %58 = add nsw i32 %57, 256
  %59 = srem i32 %58, 256
  store i32 %59, ptr %12, align 4, !tbaa !11
  %60 = load i32, ptr %12, align 4, !tbaa !11
  %61 = icmp eq i32 %60, 0
  br i1 %61, label %62, label %63

62:                                               ; preds = %48
  br label %67

63:                                               ; preds = %48
  br label %64

64:                                               ; preds = %63
  %65 = load i32, ptr %11, align 4, !tbaa !11
  %66 = add nsw i32 %65, 1
  store i32 %66, ptr %11, align 4, !tbaa !11
  br label %16, !llvm.loop !434

67:                                               ; preds = %62, %16
  store i32 0, ptr %5, align 4
  store i32 1, ptr %15, align 4
  br label %68

68:                                               ; preds = %67, %44
  call void @llvm.lifetime.end.p0(i64 4, ptr %12) #11
  call void @llvm.lifetime.end.p0(i64 4, ptr %11) #11
  call void @llvm.lifetime.end.p0(i64 4, ptr %10) #11
  %69 = load i32, ptr %5, align 4
  ret i32 %69
}