; Function Attrs: nounwind uwtable
define internal fastcc range(i32 -1094995529, 1) i32 @cbs_h264_write_scaling_list(ptr noundef readonly captures(none) %0, ptr noundef %1, ptr noundef readonly captures(none) %2, i32 noundef range(i32 16, 65) %3) unnamed_addr #0 {
  %5 = alloca [2 x i32], align 4
  %6 = getelementptr inbounds nuw i8, ptr %5, i64 4
  %wide.trip.count = zext nneg i32 %3 to i64
  br label %7

7:                                                ; preds = %14, %4
  %indvars.iv = phi i64 [ 0, %4 ], [ %indvars.iv.next, %14 ]
  %.01722 = phi i8 [ 8, %4 ], [ %.narrow, %14 ]
  %8 = getelementptr inbounds nuw [64 x i8], ptr %2, i64 0, i64 %indvars.iv
  %9 = load i8, ptr %8, align 1, !tbaa !25
  %10 = sext i8 %9 to i32
  store i32 1, ptr %5, align 4, !tbaa !63
  %11 = trunc nuw nsw i64 %indvars.iv to i32
  store i32 %11, ptr %6, align 4, !tbaa !63
  %12 = call fastcc i32 @cbs_write_se_golomb(ptr noundef %0, ptr noundef %1, ptr noundef nonnull @.str.66, ptr noundef nonnull %5, i32 noundef %10, i32 noundef -128, i32 noundef 127)
  %13 = icmp sgt i32 %12, -1
  br i1 %13, label %14, label %17

14:                                               ; preds = %7
  %15 = load i8, ptr %8, align 1, !tbaa !25
  %.narrow = add i8 %15, %.01722
  %16 = icmp eq i8 %.narrow, 0
  %indvars.iv.next = add nuw nsw i64 %indvars.iv, 1
  %exitcond.not = icmp eq i64 %indvars.iv.next, %wide.trip.count
  %or.cond = select i1 %16, i1 true, i1 %exitcond.not
  br i1 %or.cond, label %17, label %7, !llvm.loop !925

17:                                               ; preds = %14, %7
  ret i32 %12
}